; Function Attrs: nounwind uwtable
define hidden void @zim_ReflectionProperty_isReadOnly(ptr noundef readonly captures(none) %0, ptr noundef writeonly captures(none) %1) #0 {
  %3 = getelementptr inbounds nuw i8, ptr %0, i64 44
  %4 = load i32, ptr %3, align 4, !tbaa !26
  %.not.i = icmp eq i32 %4, 0
  br i1 %.not.i, label %6, label %5, !prof !70

5:                                                ; preds = %2
  tail call void @zend_wrong_parameters_none_error() #13
  br label %_property_check_flag.exit

6:                                                ; preds = %2
  %7 = getelementptr inbounds nuw i8, ptr %0, i64 32
  %8 = load ptr, ptr %7, align 8, !tbaa !26
  %9 = getelementptr inbounds i8, ptr %8, i64 -24
  %10 = load ptr, ptr %9, align 8, !tbaa !27
  %11 = icmp eq ptr %10, null
  br i1 %11, label %12, label %22

12:                                               ; preds = %6
  %13 = load ptr, ptr getelementptr inbounds nuw (i8, ptr @executor_globals, i64 960), align 8, !tbaa !39
  %.not8.i = icmp eq ptr %13, null
  br i1 %.not8.i, label %19, label %14

14:                                               ; preds = %12
  %15 = getelementptr inbounds nuw i8, ptr %13, i64 16
  %16 = load ptr, ptr %15, align 8, !tbaa !34
  %17 = load ptr, ptr @reflection_exception_ptr, align 8, !tbaa !38
  %18 = icmp eq ptr %16, %17
  br i1 %18, label %_property_check_flag.exit, label %19

19:                                               ; preds = %14, %12
  tail call void (ptr, ptr, ...) @zend_throw_error(ptr noundef null, ptr noundef nonnull @.str.10) #13
  %20 = load ptr, ptr getelementptr inbounds nuw (i8, ptr @executor_globals, i64 960), align 8, !tbaa !39
  %21 = icmp ne ptr %20, null
  tail call void @llvm.assume(i1 %21)
  br label %_property_check_flag.exit

22:                                               ; preds = %6
  %23 = load ptr, ptr %10, align 8, !tbaa !222
  %.not.i.i = icmp eq ptr %23, null
  br i1 %.not.i.i, label %prop_get_flags.exit.i, label %24

24:                                               ; preds = %22
  %25 = getelementptr inbounds nuw i8, ptr %23, i64 4
  %26 = load i32, ptr %25, align 4, !tbaa !205
  %27 = and i32 %26, 128
  %28 = icmp eq i32 %27, 0
  %29 = select i1 %28, i32 2, i32 3
  br label %prop_get_flags.exit.i

prop_get_flags.exit.i:                            ; preds = %24, %22
  %.not7.i = phi i32 [ %29, %24 ], [ 2, %22 ]
  %30 = getelementptr inbounds nuw i8, ptr %1, i64 8
  store i32 %.not7.i, ptr %30, align 8, !tbaa !26
  br label %_property_check_flag.exit

_property_check_flag.exit:                        ; preds = %5, %14, %19, %prop_get_flags.exit.i
  ret void
}